Certificate:
    Data:
        Version: 3 (0x2)
        Serial Number: 4096 (0x1000)
    Signature Algorithm: sha256WithRSAEncryption
        Issuer: C=FR, ST=IDF, L=Paris, O=Local NODE-OPCUA Certificate Authority, CN=NodeOPCUA-CA
        Validity
            Not Before: Dec 10 19:51:53 2017 GMT
            Not After : Dec  6 19:51:53 2032 GMT
        Subject: C=FR, O=NodeOPCUA, CN=NodeOPCUA
        Subject Public Key Info:
            Public Key Algorithm: rsaEncryption
                Public-Key: (2048 bit)
                Modulus:
                    00:d4:a8:d1:d3:50:15:17:45:3c:58:dd:65:31:8a:
                    a1:af:9c:9d:52:e0:d0:99:2e:12:68:e8:34:5c:18:
                    3f:ea:6c:17:5f:45:5e:5b:54:b4:c1:00:1a:69:74:
                    70:86:5b:d4:95:8a:4a:82:8b:40:1d:32:76:5c:7e:
                    23:de:2b:c9:ef:8d:ac:04:ee:65:6a:e1:22:52:17:
                    95:3d:0b:21:e2:6a:df:d4:b3:d9:55:dd:c5:b6:6c:
                    f6:e0:e6:77:93:d5:5e:43:09:ba:f1:7a:9d:72:b2:
                    e6:65:51:c1:36:22:60:ac:10:6c:52:a1:da:88:0f:
                    ea:bf:6e:32:b8:57:ea:bd:99:5f:fd:3b:5b:a8:54:
                    1d:cb:a0:46:5a:18:e3:9a:ce:ee:ff:78:ab:ba:86:
                    f6:ea:3a:b7:33:40:1a:e6:32:67:51:66:62:ee:b8:
                    4e:86:b8:af:88:44:37:1a:f2:48:8c:f5:e3:99:05:
                    ca:c6:80:a7:60:50:4f:cd:68:14:93:50:37:ef:d1:
                    3a:23:b6:be:73:ab:5c:97:67:26:1c:a2:ed:f7:27:
                    30:d0:c5:c4:9b:65:55:36:75:00:65:5f:ea:40:6f:
                    2b:95:56:b0:8a:94:19:c7:4e:87:3b:58:a3:04:ff:
                    8d:e0:49:a8:be:50:46:23:ec:77:51:86:d0:10:d7:
                    d1:15
                Exponent: 65537 (0x10001)
        X509v3 extensions:
            X509v3 Basic Constraints: critical
                CA:FALSE
            X509v3 Subject Key Identifier: 
                D4:6F:DC:03:00:D2:C1:BE:DF:0D:8C:9D:64:9B:E4:B0:A1:28:8D:5F
            X509v3 Authority Key Identifier: 
                keyid:AC:4D:88:7D:9F:A3:77:E1:DE:94:31:10:52:16:75:D4:BC:26:51:36
                DirName:/C=FR/ST=IDF/L=Paris/O=Local NODE-OPCUA Certificate Authority/CN=NodeOPCUA-CA
                serial:C1:54:86:65:3C:95:23:22

            X509v3 Subject Alternative Name: 
                URI:urn:STERFIVEPC:Node-OPCUA-Server, DNS:STERFIVEPC
            Netscape Comment: 
                OpenSSL Generated Certificate
            X509v3 Key Usage: critical
                Digital Signature, Non Repudiation, Key Encipherment, Data Encipherment, Key Agreement, Certificate Sign
            X509v3 Extended Key Usage: critical
                TLS Web Server Authentication, TLS Web Client Authentication
    Signature Algorithm: sha256WithRSAEncryption
         9e:f1:11:fd:ef:eb:dc:09:28:1f:f4:53:fc:84:fa:5b:fc:99:
         5a:5e:bc:fe:ed:6e:f6:a6:92:02:86:3f:bc:da:aa:6e:85:bb:
         8e:ad:ea:ca:5b:df:e7:c3:0f:52:e8:8c:16:a2:10:3b:45:66:
         a4:fd:9e:92:c5:42:02:cc:0c:da:05:60:18:08:70:7e:23:6e:
         7e:30:c1:d7:80:ee:f9:77:a3:e9:6e:cf:aa:7f:c6:80:17:3e:
         95:80:0b:59:c5:58:98:17:f0:63:76:22:e4:80:e9:ba:76:00:
         a9:8d:0d:32:e7:20:2c:9e:ef:b6:a7:84:9f:2f:05:b4:63:ed:
         75:e9:a5:d5:32:f9:fb:12:24:16:0e:12:1c:d0:da:33:c5:ef:
         91:f7:51:67:11:50:c6:1e:7e:c6:e5:2c:ac:4b:c3:b1:78:05:
         78:ca:79:b6:7d:4c:de:6f:18:89:48:f5:9a:4c:a1:85:9c:0b:
         f2:14:ff:6f:8d:86:70:34:0b:f3:28:4b:be:e9:f4:ea:5d:10:
         92:e5:21:65:80:9c:3c:79:3b:3c:3f:b9:1c:97:33:61:db:c3:
         9b:bf:3d:44:d6:c2:50:9e:66:5b:22:16:02:ac:3e:b6:5c:ac:
         a1:33:12:70:67:88:ac:f1:b8:bd:1f:9c:26:8c:6b:1c:6e:53:
         88:73:42:f6
-----BEGIN CERTIFICATE-----
MIIEnDCCA4SgAwIBAgICEAAwDQYJKoZIhvcNAQELBQAwczELMAkGA1UEBhMCRlIx
DDAKBgNVBAgTA0lERjEOMAwGA1UEBxMFUGFyaXMxLzAtBgNVBAoTJkxvY2FsIE5P
REUtT1BDVUEgQ2VydGlmaWNhdGUgQXV0aG9yaXR5MRUwEwYDVQQDEwxOb2RlT1BD
VUEtQ0EwIhgPMjAxNzEyMTAxOTUxNTNaGA8yMDMyMTIwNjE5NTE1M1owNTELMAkG
A1UEBhMCRlIxEjAQBgNVBAoMCU5vZGVPUENVQTESMBAGA1UEAwwJTm9kZU9QQ1VB
MIIBIjANBgkqhkiG9w0BAQEFAAOCAQ8AMIIBCgKCAQEA1KjR01AVF0U8WN1lMYqh
r5ydUuDQmS4SaOg0XBg/6mwXX0VeW1S0wQAaaXRwhlvUlYpKgotAHTJ2XH4j3ivJ
742sBO5lauEiUheVPQsh4mrf1LPZVd3Ftmz24OZ3k9VeQwm68XqdcrLmZVHBNiJg
rBBsUqHaiA/qv24yuFfqvZlf/TtbqFQdy6BGWhjjms7u/3iruob26jq3M0Aa5jJn
UWZi7rhOhriviEQ3GvJIjPXjmQXKxoCnYFBPzWgUk1A379E6I7a+c6tcl2cmHKLt
9ycw0MXEm2VVNnUAZV/qQG8rlVawipQZx06HO1ijBP+N4EmovlBGI+x3UYbQENfR
FQIDAQABo4IBcjCCAW4wDAYDVR0TAQH/BAIwADAdBgNVHQ4EFgQU1G/cAwDSwb7f
DYydZJvksKEojV8wgaUGA1UdIwSBnTCBmoAUrE2IfZ+jd+HelDEQUhZ11LwmUTah
d6R1MHMxCzAJBgNVBAYTAkZSMQwwCgYDVQQIEwNJREYxDjAMBgNVBAcTBVBhcmlz
MS8wLQYDVQQKEyZMb2NhbCBOT0RFLU9QQ1VBIENlcnRpZmljYXRlIEF1dGhvcml0
eTEVMBMGA1UEAxMMTm9kZU9QQ1VBLUNBggkAwVSGZTyVIyIwNwYDVR0RBDAwLoYg
dXJuOlNURVJGSVZFUEM6Tm9kZS1PUENVQS1TZXJ2ZXKCClNURVJGSVZFUEMwLAYJ
YIZIAYb4QgENBB8WHU9wZW5TU0wgR2VuZXJhdGVkIENlcnRpZmljYXRlMA4GA1Ud
DwEB/wQEAwIC/DAgBgNVHSUBAf8EFjAUBggrBgEFBQcDAQYIKwYBBQUHAwIwDQYJ
KoZIhvcNAQELBQADggEBAJ7xEf3v69wJKB/0U/yE+lv8mVpevP7tbvamkgKGP7za
qm6Fu46t6spb3+fDD1LojBaiEDtFZqT9npLFQgLMDNoFYBgIcH4jbn4wwdeA7vl3
o+luz6p/xoAXPpWAC1nFWJgX8GN2IuSA6bp2AKmNDTLnICye77anhJ8vBbRj7XXp
pdUy+fsSJBYOEhzQ2jPF75H3UWcRUMYefsblLKxLw7F4BXjKebZ9TN5vGIlI9ZpM
oYWcC/IU/2+NhnA0C/MoS77p9OpdEJLlIWWAnDx5Ozw/uRyXM2Hbw5u/PUTWwlCe
ZlsiFgKsPrZcrKEzEnBniKzxuL0fnCaMaxxuU4hzQvY=
-----END CERTIFICATE-----
-----BEGIN CERTIFICATE-----
MIIE3TCCA8WgAwIBAgIJAMFUhmU8lSMiMA0GCSqGSIb3DQEBCwUAMHMxCzAJBgNV
BAYTAkZSMQwwCgYDVQQIEwNJREYxDjAMBgNVBAcTBVBhcmlzMS8wLQYDVQQKEyZM
b2NhbCBOT0RFLU9QQ1VBIENlcnRpZmljYXRlIEF1dGhvcml0eTEVMBMGA1UEAxMM
Tm9kZU9QQ1VBLUNBMB4XDTE3MTIxMDE5NTE1MloXDTI3MTIwODE5NTE1MlowczEL
MAkGA1UEBhMCRlIxDDAKBgNVBAgTA0lERjEOMAwGA1UEBxMFUGFyaXMxLzAtBgNV
BAoTJkxvY2FsIE5PREUtT1BDVUEgQ2VydGlmaWNhdGUgQXV0aG9yaXR5MRUwEwYD
VQQDEwxOb2RlT1BDVUEtQ0EwggEiMA0GCSqGSIb3DQEBAQUAA4IBDwAwggEKAoIB
AQDARqQ73B7OG/GSfr9+fR398lY3g6EEubn3yfBVgirKfhtopCKAG4govUABd8Zh
xZIdJzvSY/psdQLA9CrRf3mrQluJtb2KbbAxueWPx53dnpMcJ+GckCzQwwYoITbD
dFDyz62NMGWU7vEf/1RtLMr7xVtgkGEpTRSn7b0mFjqcHk9OZanXtymfl7L1ylKB
QXQS57DrH7TejZNefLo7+qV49CG5Mnp73d7TeglQYRb+MgVlGT23Z45Lr/zUcUry
xMclX242lhNGpmt8xiKY1QV6hRMqRJXlEH3lRKEWOLW9Ms0EdT2RG+tpC/56Y6rn
N7KvGp68bof8Q5PGnE/R9PanAgMBAAGjggFyMIIBbjAdBgNVHQ4EFgQUrE2IfZ+j
d+HelDEQUhZ11LwmUTYwgaUGA1UdIwSBnTCBmoAUrE2IfZ+jd+HelDEQUhZ11Lwm
UTahd6R1MHMxCzAJBgNVBAYTAkZSMQwwCgYDVQQIEwNJREYxDjAMBgNVBAcTBVBh
cmlzMS8wLQYDVQQKEyZMb2NhbCBOT0RFLU9QQ1VBIENlcnRpZmljYXRlIEF1dGhv
cml0eTEVMBMGA1UEAxMMTm9kZU9QQ1VBLUNBggkAwVSGZTyVIyIwDAYDVR0TBAUw
AwEB/zAOBgNVHQ8BAf8EBAMCAQYwVwYJYIZIAYb4QgENBEoWSENBIENlcnRpZmlj
YXRlIGdlbmVyYXRlZCBieSBOb2RlLU9QQ1VBIENlcnRpZmljYXRlIHV0aWxpdHkg
dXNpbmcgb3BlbnNzbDAuBgNVHR8EJzAlMCOgIaAfhh1odHRwOi8vbG9jYWxob3N0
Ojg5MDAvY3JsLnBlbTANBgkqhkiG9w0BAQsFAAOCAQEAlsAVlNeWobnmMofmcz3h
K5L2QBoB8Cz9HYismCUHCT2r1wzREjWWXckte9ierhG4dTBDZuYLSO0Az55Nt47F
pvZdmT4BPt217fhDMSfEh5B0dObUlzOmGdkz/pBozxxKkDP3D2Kxlo8RiZpQOqQj
XwFYp0FFssx5bGu+1Ud/Eov9o1uTsxZIge5x2pyT65kDCPibZJg6DpuTUB5xgGGz
mblbYz3SKelPzlSsiu/pj3I+6u8DRCschDXtFvv3Y5veje4Fgi850OZjb6Y5gn/O
RMm7tZs3TNPUWjmCiSaxGW8LJly/RIs+6TBhIgYTmFZXFXBclhQt+dba6lzwLUHg
mA==
-----END CERTIFICATE-----
